target datalayout = "e-m:e-p270:32:32-p271:32:32-p272:64:64-i64:64-i128:128-f80:128-n8:16:32:64-S128"
target triple = "x86_64-pc-linux-gnu"

%class.fixed_bit_vector = type { [1 x i32] }
%class.fixed_bit_vector_manager = type <{ %class.small_object_allocator, i32, i32, i32, i32, %class.fixed_bit_vector, [4 x i8] }>
%class.small_object_allocator = type { [32 x ptr], [32 x ptr], i64 }

; Function Attrs: mustprogress uwtable
define hidden void @_ZN24fixed_bit_vector_manager10deallocateEP16fixed_bit_vector(ptr noundef nonnull align 8 dereferenceable(540) %0, ptr noundef %1) #4 align 2 {
  %3 = alloca ptr, align 8
  %4 = alloca ptr, align 8
  store ptr %0, ptr %3, align 8, !tbaa !18
  store ptr %1, ptr %4, align 8, !tbaa !3
  %5 = load ptr, ptr %3, align 8
  %6 = getelementptr inbounds nuw %class.fixed_bit_vector_manager, ptr %5, i32 0, i32 2
  %7 = load i32, ptr %6, align 4, !tbaa !26
  %8 = icmp ugt i32 %7, 0
  br i1 %8, label %9, label %15

9:                                                ; preds = %2
  %10 = getelementptr inbounds nuw %class.fixed_bit_vector_manager, ptr %5, i32 0, i32 0
  %11 = getelementptr inbounds nuw %class.fixed_bit_vector_manager, ptr %5, i32 0, i32 2
  %12 = load i32, ptr %11, align 4, !tbaa !26
  %13 = zext i32 %12 to i64
  %14 = load ptr, ptr %4, align 8, !tbaa !3
  call void @_ZN22small_object_allocator10deallocateEmPv(ptr noundef nonnull align 8 dereferenceable(520) %10, i64 noundef %13, ptr noundef %14)
  br label %15

15:                                               ; preds = %9, %2
  ret void
}