; Function Attrs: mustprogress uwtable
define hidden void @_ZN24fixed_bit_vector_manager10deallocateEP16fixed_bit_vector(ptr noundef nonnull align 8 dereferenceable(540) %0, ptr noundef %1) local_unnamed_addr #4 align 2 {
  %3 = getelementptr inbounds nuw i8, ptr %0, i64 524
  %4 = load i32, ptr %3, align 4, !tbaa !17
  %.not = icmp eq i32 %4, 0
  br i1 %.not, label %7, label %5

5:                                                ; preds = %2
  %6 = zext i32 %4 to i64
  tail call void @_ZN22small_object_allocator10deallocateEmPv(ptr noundef nonnull align 8 dereferenceable(520) %0, i64 noundef %6, ptr noundef %1)
  br label %7

7:                                                ; preds = %5, %2
  ret void
}